target datalayout = "e-m:e-p270:32:32-p271:32:32-p272:64:64-i64:64-i128:128-f80:128-n8:16:32:64-S128"
target triple = "x86_64-pc-linux-gnu"

%struct.PayloadContext = type { i32, i32, [6 x %struct.InterleavePacket], i32, [351 x i8], i32, i32 }
%struct.InterleavePacket = type { i32, i32, [315 x i8] }
%struct.AVPacket = type { ptr, i64, i64, ptr, i32, i32, i32, ptr, i32, i64, i64, ptr, ptr, %struct.AVRational }
%struct.AVRational = type { i32, i32 }
%struct.AVStream = type { ptr, i32, i32, ptr, ptr, %struct.AVRational, i64, i64, i64, i32, i32, %struct.AVRational, ptr, %struct.AVRational, %struct.AVPacket, i32, %struct.AVRational, i32 }

@frame_sizes = internal constant [5 x i8] c"\01\04\08\11#", align 1

; Function Attrs: nounwind uwtable
define internal i32 @return_stored_frame(ptr noundef %0, ptr noundef %1, ptr noundef %2, ptr noundef %3, ptr noundef %4, ptr noundef %5, i32 noundef %6) #0 {
  %8 = alloca i32, align 4
  %9 = alloca ptr, align 8
  %10 = alloca ptr, align 8
  %11 = alloca ptr, align 8
  %12 = alloca ptr, align 8
  %13 = alloca ptr, align 8
  %14 = alloca ptr, align 8
  %15 = alloca i32, align 4
  %16 = alloca ptr, align 8
  %17 = alloca i32, align 4
  %18 = alloca i32, align 4
  %19 = alloca i32, align 4
  store ptr %0, ptr %9, align 8, !tbaa !4
  store ptr %1, ptr %10, align 8, !tbaa !9
  store ptr %2, ptr %11, align 8, !tbaa !11
  store ptr %3, ptr %12, align 8, !tbaa !13
  store ptr %4, ptr %13, align 8, !tbaa !15
  store ptr %5, ptr %14, align 8, !tbaa !17
  store i32 %6, ptr %15, align 4, !tbaa !19
  call void @llvm.lifetime.start.p0(i64 8, ptr %16) #4
  %20 = load ptr, ptr %10, align 8, !tbaa !9
  %21 = getelementptr inbounds nuw %struct.PayloadContext, ptr %20, i32 0, i32 2
  %22 = load ptr, ptr %10, align 8, !tbaa !9
  %23 = getelementptr inbounds nuw %struct.PayloadContext, ptr %22, i32 0, i32 1
  %24 = load i32, ptr %23, align 4, !tbaa !26
  %25 = sext i32 %24 to i64
  %26 = getelementptr inbounds [6 x %struct.InterleavePacket], ptr %21, i64 0, i64 %25
  store ptr %26, ptr %16, align 8, !tbaa !48
  call void @llvm.lifetime.start.p0(i64 4, ptr %17) #4
  call void @llvm.lifetime.start.p0(i64 4, ptr %18) #4
  %27 = load ptr, ptr %10, align 8, !tbaa !9
  %28 = getelementptr inbounds nuw %struct.PayloadContext, ptr %27, i32 0, i32 3
  %29 = load i32, ptr %28, align 4, !tbaa !31
  %30 = icmp ne i32 %29, 0
  br i1 %30, label %31, label %56

31:                                               ; preds = %7
  %32 = load ptr, ptr %10, align 8, !tbaa !9
  %33 = getelementptr inbounds nuw %struct.PayloadContext, ptr %32, i32 0, i32 1
  %34 = load i32, ptr %33, align 4, !tbaa !26
  %35 = icmp eq i32 %34, 0
  br i1 %35, label %36, label %56

36:                                               ; preds = %31
  %37 = load ptr, ptr %10, align 8, !tbaa !9
  %38 = getelementptr inbounds nuw %struct.PayloadContext, ptr %37, i32 0, i32 6
  %39 = load i32, ptr %38, align 4, !tbaa !34
  %40 = load ptr, ptr %13, align 8, !tbaa !15
  store i32 %39, ptr %40, align 4, !tbaa !19
  %41 = load ptr, ptr %9, align 8, !tbaa !4
  %42 = load ptr, ptr %10, align 8, !tbaa !9
  %43 = load ptr, ptr %11, align 8, !tbaa !11
  %44 = load ptr, ptr %12, align 8, !tbaa !13
  %45 = load ptr, ptr %13, align 8, !tbaa !15
  %46 = load ptr, ptr %10, align 8, !tbaa !9
  %47 = getelementptr inbounds nuw %struct.PayloadContext, ptr %46, i32 0, i32 4
  %48 = getelementptr inbounds [351 x i8], ptr %47, i64 0, i64 0
  %49 = load ptr, ptr %10, align 8, !tbaa !9
  %50 = getelementptr inbounds nuw %struct.PayloadContext, ptr %49, i32 0, i32 5
  %51 = load i32, ptr %50, align 4, !tbaa !33
  %52 = call i32 @store_packet(ptr noundef %41, ptr noundef %42, ptr noundef %43, ptr noundef %44, ptr noundef %45, ptr noundef %48, i32 noundef %51)
  store i32 %52, ptr %18, align 4, !tbaa !19
  %53 = load ptr, ptr %10, align 8, !tbaa !9
  %54 = getelementptr inbounds nuw %struct.PayloadContext, ptr %53, i32 0, i32 5
  store i32 0, ptr %54, align 4, !tbaa !33
  %55 = load i32, ptr %18, align 4, !tbaa !19
  store i32 %55, ptr %8, align 4
  store i32 1, ptr %19, align 4
  br label %183

56:                                               ; preds = %31, %7
  %57 = load ptr, ptr %16, align 8, !tbaa !48
  %58 = getelementptr inbounds nuw %struct.InterleavePacket, ptr %57, i32 0, i32 1
  %59 = load i32, ptr %58, align 4, !tbaa !27
  %60 = icmp eq i32 %59, 0
  br i1 %60, label %61, label %72

61:                                               ; preds = %56
  %62 = load ptr, ptr %12, align 8, !tbaa !13
  %63 = call i32 @av_new_packet(ptr noundef %62, i32 noundef 1)
  store i32 %63, ptr %18, align 4, !tbaa !19
  %64 = icmp slt i32 %63, 0
  br i1 %64, label %65, label %67

65:                                               ; preds = %61
  %66 = load i32, ptr %18, align 4, !tbaa !19
  store i32 %66, ptr %8, align 4
  store i32 1, ptr %19, align 4
  br label %183

67:                                               ; preds = %61
  %68 = load ptr, ptr %12, align 8, !tbaa !13
  %69 = getelementptr inbounds nuw %struct.AVPacket, ptr %68, i32 0, i32 3
  %70 = load ptr, ptr %69, align 8, !tbaa !36
  %71 = getelementptr inbounds i8, ptr %70, i64 0
  store i8 0, ptr %71, align 1, !tbaa !23
  br label %151

72:                                               ; preds = %56
  %73 = load ptr, ptr %16, align 8, !tbaa !48
  %74 = getelementptr inbounds nuw %struct.InterleavePacket, ptr %73, i32 0, i32 0
  %75 = load i32, ptr %74, align 4, !tbaa !50
  %76 = load ptr, ptr %16, align 8, !tbaa !48
  %77 = getelementptr inbounds nuw %struct.InterleavePacket, ptr %76, i32 0, i32 1
  %78 = load i32, ptr %77, align 4, !tbaa !27
  %79 = icmp sge i32 %75, %78
  br i1 %79, label %80, label %81

80:                                               ; preds = %72
  store i32 -1094995529, ptr %8, align 4
  store i32 1, ptr %19, align 4
  br label %183

81:                                               ; preds = %72
  %82 = load ptr, ptr %16, align 8, !tbaa !48
  %83 = getelementptr inbounds nuw %struct.InterleavePacket, ptr %82, i32 0, i32 2
  %84 = load ptr, ptr %16, align 8, !tbaa !48
  %85 = getelementptr inbounds nuw %struct.InterleavePacket, ptr %84, i32 0, i32 0
  %86 = load i32, ptr %85, align 4, !tbaa !50
  %87 = sext i32 %86 to i64
  %88 = getelementptr inbounds [315 x i8], ptr %83, i64 0, i64 %87
  %89 = load i8, ptr %88, align 1, !tbaa !23
  %90 = zext i8 %89 to i64
  %91 = icmp uge i64 %90, 5
  br i1 %91, label %92, label %93

92:                                               ; preds = %81
  store i32 -1094995529, ptr %8, align 4
  store i32 1, ptr %19, align 4
  br label %183

93:                                               ; preds = %81
  %94 = load ptr, ptr %16, align 8, !tbaa !48
  %95 = getelementptr inbounds nuw %struct.InterleavePacket, ptr %94, i32 0, i32 2
  %96 = load ptr, ptr %16, align 8, !tbaa !48
  %97 = getelementptr inbounds nuw %struct.InterleavePacket, ptr %96, i32 0, i32 0
  %98 = load i32, ptr %97, align 4, !tbaa !50
  %99 = sext i32 %98 to i64
  %100 = getelementptr inbounds [315 x i8], ptr %95, i64 0, i64 %99
  %101 = load i8, ptr %100, align 1, !tbaa !23
  %102 = zext i8 %101 to i64
  %103 = getelementptr inbounds nuw [5 x i8], ptr @frame_sizes, i64 0, i64 %102
  %104 = load i8, ptr %103, align 1, !tbaa !23
  %105 = zext i8 %104 to i32
  store i32 %105, ptr %17, align 4, !tbaa !19
  %106 = load ptr, ptr %16, align 8, !tbaa !48
  %107 = getelementptr inbounds nuw %struct.InterleavePacket, ptr %106, i32 0, i32 0
  %108 = load i32, ptr %107, align 4, !tbaa !50
  %109 = load i32, ptr %17, align 4, !tbaa !19
  %110 = add nsw i32 %108, %109
  %111 = load ptr, ptr %16, align 8, !tbaa !48
  %112 = getelementptr inbounds nuw %struct.InterleavePacket, ptr %111, i32 0, i32 1
  %113 = load i32, ptr %112, align 4, !tbaa !27
  %114 = icmp sgt i32 %110, %113
  br i1 %114, label %115, label %116

115:                                              ; preds = %93
  store i32 -1094995529, ptr %8, align 4
  store i32 1, ptr %19, align 4
  br label %183

116:                                              ; preds = %93
  %117 = load ptr, ptr %12, align 8, !tbaa !13
  %118 = load i32, ptr %17, align 4, !tbaa !19
  %119 = call i32 @av_new_packet(ptr noundef %117, i32 noundef %118)
  store i32 %119, ptr %18, align 4, !tbaa !19
  %120 = icmp slt i32 %119, 0
  br i1 %120, label %121, label %123

121:                                              ; preds = %116
  %122 = load i32, ptr %18, align 4, !tbaa !19
  store i32 %122, ptr %8, align 4
  store i32 1, ptr %19, align 4
  br label %183

123:                                              ; preds = %116
  %124 = load ptr, ptr %12, align 8, !tbaa !13
  %125 = getelementptr inbounds nuw %struct.AVPacket, ptr %124, i32 0, i32 3
  %126 = load ptr, ptr %125, align 8, !tbaa !36
  %127 = load ptr, ptr %16, align 8, !tbaa !48
  %128 = getelementptr inbounds nuw %struct.InterleavePacket, ptr %127, i32 0, i32 2
  %129 = load ptr, ptr %16, align 8, !tbaa !48
  %130 = getelementptr inbounds nuw %struct.InterleavePacket, ptr %129, i32 0, i32 0
  %131 = load i32, ptr %130, align 4, !tbaa !50
  %132 = sext i32 %131 to i64
  %133 = getelementptr inbounds [315 x i8], ptr %128, i64 0, i64 %132
  %134 = load i32, ptr %17, align 4, !tbaa !19
  %135 = sext i32 %134 to i64
  call void @llvm.memcpy.p0.p0.i64(ptr align 1 %126, ptr align 1 %133, i64 %135, i1 false)
  %136 = load i32, ptr %17, align 4, !tbaa !19
  %137 = load ptr, ptr %16, align 8, !tbaa !48
  %138 = getelementptr inbounds nuw %struct.InterleavePacket, ptr %137, i32 0, i32 0
  %139 = load i32, ptr %138, align 4, !tbaa !50
  %140 = add nsw i32 %139, %136
  store i32 %140, ptr %138, align 4, !tbaa !50
  %141 = load ptr, ptr %16, align 8, !tbaa !48
  %142 = getelementptr inbounds nuw %struct.InterleavePacket, ptr %141, i32 0, i32 0
  %143 = load i32, ptr %142, align 4, !tbaa !50
  %144 = load ptr, ptr %16, align 8, !tbaa !48
  %145 = getelementptr inbounds nuw %struct.InterleavePacket, ptr %144, i32 0, i32 1
  %146 = load i32, ptr %145, align 4, !tbaa !27
  %147 = icmp sge i32 %143, %146
  %148 = zext i1 %147 to i32
  %149 = load ptr, ptr %10, align 8, !tbaa !9
  %150 = getelementptr inbounds nuw %struct.PayloadContext, ptr %149, i32 0, i32 3
  store i32 %148, ptr %150, align 4, !tbaa !31
  br label %151

151:                                              ; preds = %123, %67
  %152 = load ptr, ptr %11, align 8, !tbaa !11
  %153 = getelementptr inbounds nuw %struct.AVStream, ptr %152, i32 0, i32 1
  %154 = load i32, ptr %153, align 8, !tbaa !42
  %155 = load ptr, ptr %12, align 8, !tbaa !13
  %156 = getelementptr inbounds nuw %struct.AVPacket, ptr %155, i32 0, i32 5
  store i32 %154, ptr %156, align 4, !tbaa !47
  %157 = load ptr, ptr %10, align 8, !tbaa !9
  %158 = getelementptr inbounds nuw %struct.PayloadContext, ptr %157, i32 0, i32 1
  %159 = load i32, ptr %158, align 4, !tbaa !26
  %160 = load ptr, ptr %10, align 8, !tbaa !9
  %161 = getelementptr inbounds nuw %struct.PayloadContext, ptr %160, i32 0, i32 0
  %162 = load i32, ptr %161, align 4, !tbaa !24
  %163 = icmp eq i32 %159, %162
  br i1 %163, label %164, label %178

164:                                              ; preds = %151
  %165 = load ptr, ptr %10, align 8, !tbaa !9
  %166 = getelementptr inbounds nuw %struct.PayloadContext, ptr %165, i32 0, i32 1
  store i32 0, ptr %166, align 4, !tbaa !26
  %167 = load ptr, ptr %10, align 8, !tbaa !9
  %168 = getelementptr inbounds nuw %struct.PayloadContext, ptr %167, i32 0, i32 3
  %169 = load i32, ptr %168, align 4, !tbaa !31
  %170 = icmp ne i32 %169, 0
  br i1 %170, label %172, label %171

171:                                              ; preds = %164
  store i32 1, ptr %8, align 4
  store i32 1, ptr %19, align 4
  br label %183

172:                                              ; preds = %164
  %173 = load ptr, ptr %10, align 8, !tbaa !9
  %174 = getelementptr inbounds nuw %struct.PayloadContext, ptr %173, i32 0, i32 5
  %175 = load i32, ptr %174, align 4, !tbaa !33
  %176 = icmp sgt i32 %175, 0
  %177 = zext i1 %176 to i32
  store i32 %177, ptr %8, align 4
  store i32 1, ptr %19, align 4
  br label %183

178:                                              ; preds = %151
  %179 = load ptr, ptr %10, align 8, !tbaa !9
  %180 = getelementptr inbounds nuw %struct.PayloadContext, ptr %179, i32 0, i32 1
  %181 = load i32, ptr %180, align 4, !tbaa !26
  %182 = add nsw i32 %181, 1
  store i32 %182, ptr %180, align 4, !tbaa !26
  store i32 1, ptr %8, align 4
  store i32 1, ptr %19, align 4
  br label %183

183:                                              ; preds = %178, %172, %171, %121, %115, %92, %80, %65, %36
  call void @llvm.lifetime.end.p0(i64 4, ptr %18) #4
  call void @llvm.lifetime.end.p0(i64 4, ptr %17) #4
  call void @llvm.lifetime.end.p0(i64 8, ptr %16) #4
  %184 = load i32, ptr %8, align 4
  ret i32 %184
}