; Function Attrs: nounwind uwtable
define internal fastcc range(i32 -2147483648, 2) i32 @return_stored_frame(ptr noundef %0, ptr noundef captures(none) %1, ptr noundef readonly captures(none) %2, ptr noundef %3, ptr noundef captures(none) %4) unnamed_addr #0 {
  %6 = getelementptr inbounds nuw i8, ptr %1, i64 8
  %7 = getelementptr inbounds nuw i8, ptr %1, i64 4
  %8 = load i32, ptr %7, align 4, !tbaa !14
  %9 = sext i32 %8 to i64
  %10 = getelementptr inbounds [6 x %struct.InterleavePacket], ptr %6, i64 0, i64 %9
  %11 = getelementptr inbounds nuw i8, ptr %1, i64 1952
  %12 = load i32, ptr %11, align 4, !tbaa !15
  %.not = icmp ne i32 %12, 0
  %13 = icmp eq i32 %8, 0
  %or.cond = select i1 %.not, i1 %13, i1 false
  br i1 %or.cond, label %14, label %21

14:                                               ; preds = %5
  %15 = getelementptr inbounds nuw i8, ptr %1, i64 2312
  %16 = load i32, ptr %15, align 4, !tbaa !19
  store i32 %16, ptr %4, align 4, !tbaa !18
  %17 = getelementptr inbounds nuw i8, ptr %1, i64 1956
  %18 = getelementptr inbounds nuw i8, ptr %1, i64 2308
  %19 = load i32, ptr %18, align 4, !tbaa !17
  %20 = tail call fastcc i32 @store_packet(ptr noundef %0, ptr noundef nonnull %1, ptr noundef %2, ptr noundef %3, ptr noundef nonnull %4, ptr noundef nonnull %17, i32 noundef %19)
  store i32 0, ptr %18, align 4, !tbaa !17
  br label %77

21:                                               ; preds = %5
  %22 = getelementptr inbounds nuw i8, ptr %10, i64 4
  %23 = load i32, ptr %22, align 4, !tbaa !10
  %24 = icmp eq i32 %23, 0
  br i1 %24, label %25, label %31

25:                                               ; preds = %21
  %26 = tail call i32 @av_new_packet(ptr noundef %3, i32 noundef 1) #3
  %27 = icmp slt i32 %26, 0
  br i1 %27, label %77, label %28

28:                                               ; preds = %25
  %29 = getelementptr inbounds nuw i8, ptr %3, i64 24
  %30 = load ptr, ptr %29, align 8, !tbaa !21
  store i8 0, ptr %30, align 1, !tbaa !4
  br label %61

31:                                               ; preds = %21
  %32 = load i32, ptr %10, align 4, !tbaa !35
  %.not54 = icmp slt i32 %32, %23
  br i1 %.not54, label %33, label %77

33:                                               ; preds = %31
  %34 = getelementptr inbounds nuw i8, ptr %10, i64 8
  %35 = sext i32 %32 to i64
  %36 = getelementptr inbounds [315 x i8], ptr %34, i64 0, i64 %35
  %37 = load i8, ptr %36, align 1, !tbaa !4
  %38 = icmp ugt i8 %37, 4
  br i1 %38, label %77, label %39

39:                                               ; preds = %33
  %40 = zext nneg i8 %37 to i64
  %41 = getelementptr inbounds nuw [5 x i8], ptr @frame_sizes, i64 0, i64 %40
  %42 = load i8, ptr %41, align 1, !tbaa !4
  %43 = zext i8 %42 to i32
  %44 = add nsw i32 %32, %43
  %45 = icmp sgt i32 %44, %23
  br i1 %45, label %77, label %46

46:                                               ; preds = %39
  %47 = tail call i32 @av_new_packet(ptr noundef %3, i32 noundef %43) #3
  %48 = icmp slt i32 %47, 0
  br i1 %48, label %77, label %49

49:                                               ; preds = %46
  %50 = getelementptr inbounds nuw i8, ptr %3, i64 24
  %51 = load ptr, ptr %50, align 8, !tbaa !21
  %52 = load i32, ptr %10, align 4, !tbaa !35
  %53 = sext i32 %52 to i64
  %54 = getelementptr inbounds [315 x i8], ptr %34, i64 0, i64 %53
  %55 = zext i8 %42 to i64
  tail call void @llvm.memcpy.p0.p0.i64(ptr align 1 %51, ptr nonnull align 1 %54, i64 %55, i1 false)
  %56 = load i32, ptr %10, align 4, !tbaa !35
  %57 = add nsw i32 %56, %43
  store i32 %57, ptr %10, align 4, !tbaa !35
  %58 = load i32, ptr %22, align 4, !tbaa !10
  %59 = icmp sge i32 %57, %58
  %60 = zext i1 %59 to i32
  store i32 %60, ptr %11, align 4, !tbaa !15
  br label %61

61:                                               ; preds = %49, %28
  %62 = getelementptr inbounds nuw i8, ptr %2, i64 8
  %63 = load i32, ptr %62, align 8, !tbaa !29
  %64 = getelementptr inbounds nuw i8, ptr %3, i64 36
  store i32 %63, ptr %64, align 4, !tbaa !34
  %65 = load i32, ptr %7, align 4, !tbaa !14
  %66 = load i32, ptr %1, align 4, !tbaa !7
  %67 = icmp eq i32 %65, %66
  br i1 %67, label %68, label %75

68:                                               ; preds = %61
  store i32 0, ptr %7, align 4, !tbaa !14
  %69 = load i32, ptr %11, align 4, !tbaa !15
  %.not55 = icmp eq i32 %69, 0
  br i1 %.not55, label %77, label %70

70:                                               ; preds = %68
  %71 = getelementptr inbounds nuw i8, ptr %1, i64 2308
  %72 = load i32, ptr %71, align 4, !tbaa !17
  %73 = icmp sgt i32 %72, 0
  %74 = zext i1 %73 to i32
  br label %77

75:                                               ; preds = %61
  %76 = add nsw i32 %65, 1
  store i32 %76, ptr %7, align 4, !tbaa !14
  br label %77

77:                                               ; preds = %68, %46, %39, %33, %31, %25, %75, %70, %14
  %.0 = phi i32 [ %20, %14 ], [ %74, %70 ], [ 1, %75 ], [ %26, %25 ], [ -1094995529, %31 ], [ -1094995529, %33 ], [ -1094995529, %39 ], [ %47, %46 ], [ 1, %68 ]
  ret i32 %.0
}